; Function Attrs: mustprogress uwtable
define internal void @"_ZNSt3__110__function6__funcIZN3tev11ImageViewerC1ERKNS_10shared_ptrINS2_22BackgroundImagesLoaderEEEbbbE4$_25NS_9allocatorIS9_EEFvbEEclEOb"(ptr nocapture noundef nonnull readonly align 8 dereferenceable(16) %0, ptr nocapture noundef nonnull readonly align 1 dereferenceable(1) %1) unnamed_addr #7 align 2 {
  %3 = getelementptr inbounds i8, ptr %0, i64 8
  %.val = load ptr, ptr %3, align 8
  %.val2 = load i8, ptr %1, align 1
  %4 = and i8 %.val2, 1
  %5 = getelementptr inbounds i8, ptr %.val, i64 824
  %6 = load ptr, ptr %5, align 8
  %7 = getelementptr inbounds i8, ptr %6, i64 168
  store i8 %4, ptr %7, align 8
  %8 = tail call i64 @_ZNSt3__16chrono12steady_clock3nowEv() #39
  %9 = getelementptr inbounds i8, ptr %.val, i64 840
  store i64 %8, ptr %9, align 8
  tail call void @_ZN7nanogui6Screen6redrawEv(ptr noundef nonnull align 16 dereferenceable(384) %.val)
  ret void
}